; Function Attrs: mustprogress nofree norecurse nosync nounwind willreturn memory(argmem: write) uwtable
define dso_local void @initClientMultiState(ptr noundef writeonly captures(none) initializes((440, 460), (464, 476)) %0) local_unnamed_addr #0 {
  %2 = getelementptr inbounds nuw i8, ptr %0, i64 440
  %3 = getelementptr inbounds nuw i8, ptr %0, i64 464
  store i64 0, ptr %3, align 8, !tbaa !5
  %4 = getelementptr inbounds nuw i8, ptr %0, i64 472
  store i32 0, ptr %4, align 8, !tbaa !28
  tail call void @llvm.memset.p0.i64(ptr noundef nonnull align 8 dereferenceable(20) %2, i8 0, i64 20, i1 false)
  ret void
}